; Function Attrs: mustprogress nofree norecurse nosync nounwind willreturn memory(argmem: readwrite) uwtable
define void @ubidi_getClassCallback_77(ptr noundef readonly %0, ptr noundef writeonly %1, ptr noundef writeonly %2) local_unnamed_addr #12 {
  %4 = icmp eq ptr %0, null
  br i1 %4, label %13, label %5

5:                                                ; preds = %3
  %.not = icmp eq ptr %1, null
  br i1 %.not, label %9, label %6

6:                                                ; preds = %5
  %7 = getelementptr inbounds nuw i8, ptr %0, i64 448
  %8 = load ptr, ptr %7, align 8, !tbaa !77
  store ptr %8, ptr %1, align 8, !tbaa !24
  br label %9

9:                                                ; preds = %6, %5
  %.not9 = icmp eq ptr %2, null
  br i1 %.not9, label %13, label %10

10:                                               ; preds = %9
  %11 = getelementptr inbounds nuw i8, ptr %0, i64 456
  %12 = load ptr, ptr %11, align 8, !tbaa !78
  store ptr %12, ptr %2, align 8, !tbaa !24
  br label %13

13:                                               ; preds = %3, %10, %9
  ret void
}